target datalayout = "e-m:e-p270:32:32-p271:32:32-p272:64:64-i64:64-i128:128-f80:128-n8:16:32:64-S128"
target triple = "x86_64-pc-linux-gnu"

%struct.Node = type { i32 }
%struct.ForEachState = type { ptr, i32 }
%struct.List = type { i32, i32, i32, ptr, [0 x %union.ListCell] }
%union.ListCell = type { ptr }
%struct.QualCost = type { double, double }
%struct.RestrictInfo = type { i32, ptr, i8, i8, i8, i8, i8, i8, i32, i32, i32, ptr, ptr, ptr, ptr, ptr, ptr, ptr, i32, ptr, %struct.QualCost, double, double, ptr, ptr, ptr, ptr, ptr, ptr, i8, i32, double, double, double, double, i32, i32 }
%struct.QualItem = type { ptr, double, i32 }

@cpu_operator_cost = external global double, align 8

; Function Attrs: inlinehint nounwind uwtable
define internal i32 @list_length(ptr noundef %0) #4 {
  %2 = alloca ptr, align 8
  store ptr %0, ptr %2, align 8
  %3 = load ptr, ptr %2, align 8
  %4 = icmp ne ptr %3, null
  br i1 %4, label %5, label %9

5:                                                ; preds = %1
  %6 = load ptr, ptr %2, align 8
  %7 = getelementptr inbounds nuw %struct.List, ptr %6, i32 0, i32 1
  %8 = load i32, ptr %7, align 4
  br label %10

9:                                                ; preds = %1
  br label %10

10:                                               ; preds = %9, %5
  %11 = phi i32 [ %8, %5 ], [ 0, %9 ]
  ret i32 %11
}

; Function Attrs: nounwind uwtable
define internal ptr @order_qual_clauses(ptr noundef %0, ptr noundef %1) #0 {
  %3 = alloca ptr, align 8
  %4 = alloca ptr, align 8
  %5 = alloca ptr, align 8
  %6 = alloca i32, align 4
  %7 = alloca ptr, align 8
  %8 = alloca ptr, align 8
  %9 = alloca i32, align 4
  %10 = alloca ptr, align 8
  %11 = alloca i32, align 4
  %12 = alloca %struct.ForEachState, align 8
  %13 = alloca ptr, align 8
  %14 = alloca %struct.QualCost, align 8
  %15 = alloca ptr, align 8
  %16 = alloca %struct.QualItem, align 8
  %17 = alloca i32, align 4
  %18 = alloca ptr, align 8
  store ptr %0, ptr %4, align 8
  store ptr %1, ptr %5, align 8
  call void @llvm.lifetime.start.p0(i64 4, ptr %6) #10
  %19 = load ptr, ptr %5, align 8
  %20 = call i32 @list_length(ptr noundef %19)
  store i32 %20, ptr %6, align 4
  call void @llvm.lifetime.start.p0(i64 8, ptr %7) #10
  call void @llvm.lifetime.start.p0(i64 8, ptr %8) #10
  call void @llvm.lifetime.start.p0(i64 4, ptr %9) #10
  call void @llvm.lifetime.start.p0(i64 8, ptr %10) #10
  %21 = load i32, ptr %6, align 4
  %22 = icmp sle i32 %21, 1
  br i1 %22, label %23, label %25

23:                                               ; preds = %2
  %24 = load ptr, ptr %5, align 8
  store ptr %24, ptr %3, align 8
  store i32 1, ptr %11, align 4
  br label %207

25:                                               ; preds = %2
  %26 = load i32, ptr %6, align 4
  %27 = sext i32 %26 to i64
  %28 = mul i64 %27, 24
  %29 = call ptr @palloc(i64 noundef %28)
  store ptr %29, ptr %7, align 8
  store i32 0, ptr %9, align 4
  call void @llvm.lifetime.start.p0(i64 16, ptr %12) #10
  %30 = getelementptr inbounds nuw %struct.ForEachState, ptr %12, i32 0, i32 0
  %31 = load ptr, ptr %5, align 8
  store ptr %31, ptr %30, align 8
  %32 = getelementptr inbounds nuw %struct.ForEachState, ptr %12, i32 0, i32 1
  store i32 0, ptr %32, align 8
  %33 = getelementptr i8, ptr %12, i64 12
  call void @llvm.memset.p0.i64(ptr align 4 %33, i8 0, i64 4, i1 false)
  br label %34

34:                                               ; preds = %123, %25
  %35 = getelementptr inbounds nuw %struct.ForEachState, ptr %12, i32 0, i32 0
  %36 = load ptr, ptr %35, align 8
  %37 = icmp ne ptr %36, null
  br i1 %37, label %38, label %55

38:                                               ; preds = %34
  %39 = getelementptr inbounds nuw %struct.ForEachState, ptr %12, i32 0, i32 1
  %40 = load i32, ptr %39, align 8
  %41 = getelementptr inbounds nuw %struct.ForEachState, ptr %12, i32 0, i32 0
  %42 = load ptr, ptr %41, align 8
  %43 = getelementptr inbounds nuw %struct.List, ptr %42, i32 0, i32 1
  %44 = load i32, ptr %43, align 4
  %45 = icmp slt i32 %40, %44
  br i1 %45, label %46, label %55

46:                                               ; preds = %38
  %47 = getelementptr inbounds nuw %struct.ForEachState, ptr %12, i32 0, i32 0
  %48 = load ptr, ptr %47, align 8
  %49 = getelementptr inbounds nuw %struct.List, ptr %48, i32 0, i32 3
  %50 = load ptr, ptr %49, align 8
  %51 = getelementptr inbounds nuw %struct.ForEachState, ptr %12, i32 0, i32 1
  %52 = load i32, ptr %51, align 8
  %53 = sext i32 %52 to i64
  %54 = getelementptr inbounds %union.ListCell, ptr %50, i64 %53
  store ptr %54, ptr %8, align 8
  br label %56

55:                                               ; preds = %38, %34
  store ptr null, ptr %8, align 8
  br label %56

56:                                               ; preds = %55, %46
  %57 = phi i32 [ 1, %46 ], [ 0, %55 ]
  %58 = icmp ne i32 %57, 0
  br i1 %58, label %60, label %59

59:                                               ; preds = %56
  store i32 2, ptr %11, align 4
  call void @llvm.lifetime.end.p0(i64 16, ptr %12) #10
  br label %127

60:                                               ; preds = %56
  call void @llvm.lifetime.start.p0(i64 8, ptr %13) #10
  %61 = load ptr, ptr %8, align 8
  %62 = load ptr, ptr %61, align 8
  store ptr %62, ptr %13, align 8
  call void @llvm.lifetime.start.p0(i64 16, ptr %14) #10
  %63 = load ptr, ptr %13, align 8
  %64 = load ptr, ptr %4, align 8
  call void @cost_qual_eval_node(ptr noundef %14, ptr noundef %63, ptr noundef %64)
  %65 = load ptr, ptr %13, align 8
  %66 = load ptr, ptr %7, align 8
  %67 = load i32, ptr %9, align 4
  %68 = sext i32 %67 to i64
  %69 = getelementptr inbounds %struct.QualItem, ptr %66, i64 %68
  %70 = getelementptr inbounds nuw %struct.QualItem, ptr %69, i32 0, i32 0
  store ptr %65, ptr %70, align 8
  %71 = getelementptr inbounds nuw %struct.QualCost, ptr %14, i32 0, i32 1
  %72 = load double, ptr %71, align 8
  %73 = load ptr, ptr %7, align 8
  %74 = load i32, ptr %9, align 4
  %75 = sext i32 %74 to i64
  %76 = getelementptr inbounds %struct.QualItem, ptr %73, i64 %75
  %77 = getelementptr inbounds nuw %struct.QualItem, ptr %76, i32 0, i32 1
  store double %72, ptr %77, align 8
  %78 = load ptr, ptr %13, align 8
  %79 = getelementptr inbounds nuw %struct.Node, ptr %78, i32 0, i32 0
  %80 = load i32, ptr %79, align 4
  %81 = icmp eq i32 %80, 317
  br i1 %81, label %82, label %114

82:                                               ; preds = %60
  call void @llvm.lifetime.start.p0(i64 8, ptr %15) #10
  %83 = load ptr, ptr %13, align 8
  store ptr %83, ptr %15, align 8
  %84 = load ptr, ptr %15, align 8
  %85 = getelementptr inbounds nuw %struct.RestrictInfo, ptr %84, i32 0, i32 7
  %86 = load i8, ptr %85, align 1, !range !4, !noundef !5
  %87 = trunc i8 %86 to i1
  br i1 %87, label %88, label %104

88:                                               ; preds = %82
  %89 = load ptr, ptr %7, align 8
  %90 = load i32, ptr %9, align 4
  %91 = sext i32 %90 to i64
  %92 = getelementptr inbounds %struct.QualItem, ptr %89, i64 %91
  %93 = getelementptr inbounds nuw %struct.QualItem, ptr %92, i32 0, i32 1
  %94 = load double, ptr %93, align 8
  %95 = load double, ptr @cpu_operator_cost, align 8
  %96 = fmul double 1.000000e+01, %95
  %97 = fcmp olt double %94, %96
  br i1 %97, label %98, label %104

98:                                               ; preds = %88
  %99 = load ptr, ptr %7, align 8
  %100 = load i32, ptr %9, align 4
  %101 = sext i32 %100 to i64
  %102 = getelementptr inbounds %struct.QualItem, ptr %99, i64 %101
  %103 = getelementptr inbounds nuw %struct.QualItem, ptr %102, i32 0, i32 2
  store i32 0, ptr %103, align 8
  br label %113

104:                                              ; preds = %88, %82
  %105 = load ptr, ptr %15, align 8
  %106 = getelementptr inbounds nuw %struct.RestrictInfo, ptr %105, i32 0, i32 9
  %107 = load i32, ptr %106, align 4
  %108 = load ptr, ptr %7, align 8
  %109 = load i32, ptr %9, align 4
  %110 = sext i32 %109 to i64
  %111 = getelementptr inbounds %struct.QualItem, ptr %108, i64 %110
  %112 = getelementptr inbounds nuw %struct.QualItem, ptr %111, i32 0, i32 2
  store i32 %107, ptr %112, align 8
  br label %113

113:                                              ; preds = %104, %98
  call void @llvm.lifetime.end.p0(i64 8, ptr %15) #10
  br label %120

114:                                              ; preds = %60
  %115 = load ptr, ptr %7, align 8
  %116 = load i32, ptr %9, align 4
  %117 = sext i32 %116 to i64
  %118 = getelementptr inbounds %struct.QualItem, ptr %115, i64 %117
  %119 = getelementptr inbounds nuw %struct.QualItem, ptr %118, i32 0, i32 2
  store i32 0, ptr %119, align 8
  br label %120

120:                                              ; preds = %114, %113
  %121 = load i32, ptr %9, align 4
  %122 = add i32 %121, 1
  store i32 %122, ptr %9, align 4
  call void @llvm.lifetime.end.p0(i64 16, ptr %14) #10
  call void @llvm.lifetime.end.p0(i64 8, ptr %13) #10
  br label %123

123:                                              ; preds = %120
  %124 = getelementptr inbounds nuw %struct.ForEachState, ptr %12, i32 0, i32 1
  %125 = load i32, ptr %124, align 8
  %126 = add i32 %125, 1
  store i32 %126, ptr %124, align 8
  br label %34, !llvm.loop !40

127:                                              ; preds = %59
  store i32 1, ptr %9, align 4
  br label %128

128:                                              ; preds = %185, %127
  %129 = load i32, ptr %9, align 4
  %130 = load i32, ptr %6, align 4
  %131 = icmp slt i32 %129, %130
  br i1 %131, label %132, label %188

132:                                              ; preds = %128
  call void @llvm.lifetime.start.p0(i64 24, ptr %16) #10
  %133 = load ptr, ptr %7, align 8
  %134 = load i32, ptr %9, align 4
  %135 = sext i32 %134 to i64
  %136 = getelementptr inbounds %struct.QualItem, ptr %133, i64 %135
  call void @llvm.memcpy.p0.p0.i64(ptr align 8 %16, ptr align 8 %136, i64 24, i1 false)
  call void @llvm.lifetime.start.p0(i64 4, ptr %17) #10
  %137 = load i32, ptr %9, align 4
  store i32 %137, ptr %17, align 4
  br label %138

138:                                              ; preds = %177, %132
  %139 = load i32, ptr %17, align 4
  %140 = icmp sgt i32 %139, 0
  br i1 %140, label %141, label %180

141:                                              ; preds = %138
  call void @llvm.lifetime.start.p0(i64 8, ptr %18) #10
  %142 = load ptr, ptr %7, align 8
  %143 = load i32, ptr %17, align 4
  %144 = sub i32 %143, 1
  %145 = sext i32 %144 to i64
  %146 = getelementptr inbounds %struct.QualItem, ptr %142, i64 %145
  store ptr %146, ptr %18, align 8
  %147 = getelementptr inbounds nuw %struct.QualItem, ptr %16, i32 0, i32 2
  %148 = load i32, ptr %147, align 8
  %149 = load ptr, ptr %18, align 8
  %150 = getelementptr inbounds nuw %struct.QualItem, ptr %149, i32 0, i32 2
  %151 = load i32, ptr %150, align 8
  %152 = icmp ugt i32 %148, %151
  br i1 %152, label %167, label %153

153:                                              ; preds = %141
  %154 = getelementptr inbounds nuw %struct.QualItem, ptr %16, i32 0, i32 2
  %155 = load i32, ptr %154, align 8
  %156 = load ptr, ptr %18, align 8
  %157 = getelementptr inbounds nuw %struct.QualItem, ptr %156, i32 0, i32 2
  %158 = load i32, ptr %157, align 8
  %159 = icmp eq i32 %155, %158
  br i1 %159, label %160, label %168

160:                                              ; preds = %153
  %161 = getelementptr inbounds nuw %struct.QualItem, ptr %16, i32 0, i32 1
  %162 = load double, ptr %161, align 8
  %163 = load ptr, ptr %18, align 8
  %164 = getelementptr inbounds nuw %struct.QualItem, ptr %163, i32 0, i32 1
  %165 = load double, ptr %164, align 8
  %166 = fcmp oge double %162, %165
  br i1 %166, label %167, label %168

167:                                              ; preds = %160, %141
  store i32 8, ptr %11, align 4
  br label %174

168:                                              ; preds = %160, %153
  %169 = load ptr, ptr %7, align 8
  %170 = load i32, ptr %17, align 4
  %171 = sext i32 %170 to i64
  %172 = getelementptr inbounds %struct.QualItem, ptr %169, i64 %171
  %173 = load ptr, ptr %18, align 8
  call void @llvm.memcpy.p0.p0.i64(ptr align 8 %172, ptr align 8 %173, i64 24, i1 false)
  store i32 0, ptr %11, align 4
  br label %174

174:                                              ; preds = %168, %167
  call void @llvm.lifetime.end.p0(i64 8, ptr %18) #10
  %175 = load i32, ptr %11, align 4
  switch i32 %175, label %209 [
    i32 0, label %176
    i32 8, label %180
  ]

176:                                              ; preds = %174
  br label %177

177:                                              ; preds = %176
  %178 = load i32, ptr %17, align 4
  %179 = add i32 %178, -1
  store i32 %179, ptr %17, align 4
  br label %138, !llvm.loop !41

180:                                              ; preds = %174, %138
  %181 = load ptr, ptr %7, align 8
  %182 = load i32, ptr %17, align 4
  %183 = sext i32 %182 to i64
  %184 = getelementptr inbounds %struct.QualItem, ptr %181, i64 %183
  call void @llvm.memcpy.p0.p0.i64(ptr align 8 %184, ptr align 8 %16, i64 24, i1 false)
  call void @llvm.lifetime.end.p0(i64 4, ptr %17) #10
  call void @llvm.lifetime.end.p0(i64 24, ptr %16) #10
  br label %185

185:                                              ; preds = %180
  %186 = load i32, ptr %9, align 4
  %187 = add i32 %186, 1
  store i32 %187, ptr %9, align 4
  br label %128, !llvm.loop !42

188:                                              ; preds = %128
  store ptr null, ptr %10, align 8
  store i32 0, ptr %9, align 4
  br label %189

189:                                              ; preds = %202, %188
  %190 = load i32, ptr %9, align 4
  %191 = load i32, ptr %6, align 4
  %192 = icmp slt i32 %190, %191
  br i1 %192, label %193, label %205

193:                                              ; preds = %189
  %194 = load ptr, ptr %10, align 8
  %195 = load ptr, ptr %7, align 8
  %196 = load i32, ptr %9, align 4
  %197 = sext i32 %196 to i64
  %198 = getelementptr inbounds %struct.QualItem, ptr %195, i64 %197
  %199 = getelementptr inbounds nuw %struct.QualItem, ptr %198, i32 0, i32 0
  %200 = load ptr, ptr %199, align 8
  %201 = call ptr @lappend(ptr noundef %194, ptr noundef %200)
  store ptr %201, ptr %10, align 8
  br label %202

202:                                              ; preds = %193
  %203 = load i32, ptr %9, align 4
  %204 = add i32 %203, 1
  store i32 %204, ptr %9, align 4
  br label %189, !llvm.loop !43

205:                                              ; preds = %189
  %206 = load ptr, ptr %10, align 8
  store ptr %206, ptr %3, align 8
  store i32 1, ptr %11, align 4
  br label %207

207:                                              ; preds = %205, %23
  call void @llvm.lifetime.end.p0(i64 8, ptr %10) #10
  call void @llvm.lifetime.end.p0(i64 4, ptr %9) #10
  call void @llvm.lifetime.end.p0(i64 8, ptr %8) #10
  call void @llvm.lifetime.end.p0(i64 8, ptr %7) #10
  call void @llvm.lifetime.end.p0(i64 4, ptr %6) #10
  %208 = load ptr, ptr %3, align 8
  ret ptr %208

209:                                              ; preds = %174
  unreachable
}