; Function Attrs: nounwind uwtable
define internal fastcc ptr @order_qual_clauses(ptr noundef %0, ptr noundef readonly captures(address_is_null, ret: address, provenance) %1) unnamed_addr #0 {
  %3 = alloca %struct.QualCost, align 8
  %.not.i = icmp eq ptr %1, null
  br i1 %.not.i, label %list_length.exit.thread, label %list_length.exit

list_length.exit:                                 ; preds = %2
  %4 = getelementptr inbounds nuw i8, ptr %1, i64 4
  %5 = load i32, ptr %4, align 4
  %6 = icmp slt i32 %5, 2
  br i1 %6, label %list_length.exit.thread, label %7

7:                                                ; preds = %list_length.exit
  %8 = zext nneg i32 %5 to i64
  %9 = mul nuw nsw i64 %8, 24
  %10 = tail call ptr @palloc(i64 noundef %9) #12
  %11 = load i32, ptr %4, align 4
  %12 = icmp sgt i32 %11, 0
  br i1 %12, label %.lr.ph, label %.lr.ph85.preheader

.lr.ph:                                           ; preds = %7
  %13 = getelementptr inbounds nuw i8, ptr %1, i64 16
  %14 = getelementptr inbounds nuw i8, ptr %3, i64 8
  br label %15

.lr.ph85.preheader:                               ; preds = %35, %7
  %smax = call i32 @llvm.smax.i32(i32 %5, i32 2)
  %wide.trip.count = zext nneg i32 %smax to i64
  br label %.lr.ph85

15:                                               ; preds = %.lr.ph, %35
  %indvars.iv = phi i64 [ 0, %.lr.ph ], [ %indvars.iv.next, %35 ]
  %16 = load ptr, ptr %13, align 8
  %17 = getelementptr inbounds nuw %union.ListCell, ptr %16, i64 %indvars.iv
  %18 = load ptr, ptr %17, align 8
  call void @llvm.lifetime.start.p0(i64 16, ptr nonnull %3) #12
  call void @cost_qual_eval_node(ptr noundef nonnull %3, ptr noundef %18, ptr noundef %0) #12
  %19 = getelementptr inbounds nuw %struct.QualItem, ptr %10, i64 %indvars.iv
  store ptr %18, ptr %19, align 8
  %20 = load double, ptr %14, align 8
  %21 = getelementptr inbounds nuw i8, ptr %19, i64 8
  store double %20, ptr %21, align 8
  %22 = load i32, ptr %18, align 4
  %23 = icmp eq i32 %22, 317
  br i1 %23, label %24, label %35

24:                                               ; preds = %15
  %25 = getelementptr inbounds nuw i8, ptr %18, i64 21
  %26 = load i8, ptr %25, align 1, !range !4, !noundef !5
  %27 = trunc nuw i8 %26 to i1
  br i1 %27, label %28, label %32

28:                                               ; preds = %24
  %29 = load double, ptr @cpu_operator_cost, align 8
  %30 = fmul double %29, 1.000000e+01
  %31 = fcmp olt double %20, %30
  br i1 %31, label %35, label %32

32:                                               ; preds = %28, %24
  %33 = getelementptr inbounds nuw i8, ptr %18, i64 28
  %34 = load i32, ptr %33, align 4
  br label %35

35:                                               ; preds = %15, %28, %32
  %.sink = phi i32 [ %34, %32 ], [ 0, %28 ], [ 0, %15 ]
  %36 = getelementptr inbounds nuw i8, ptr %19, i64 16
  store i32 %.sink, ptr %36, align 8
  %indvars.iv.next = add nuw nsw i64 %indvars.iv, 1
  call void @llvm.lifetime.end.p0(i64 16, ptr nonnull %3) #12
  %37 = load i32, ptr %4, align 4
  %38 = sext i32 %37 to i64
  %39 = icmp slt i64 %indvars.iv.next, %38
  br i1 %39, label %15, label %.lr.ph85.preheader, !llvm.loop !17

.lr.ph88.preheader:                               ; preds = %.thread77
  %smax98 = call i32 @llvm.smax.i32(i32 %5, i32 1)
  %wide.trip.count99 = zext nneg i32 %smax98 to i64
  br label %.lr.ph88

.lr.ph85:                                         ; preds = %.lr.ph85.preheader, %.thread77
  %indvars.iv92 = phi i64 [ 1, %.lr.ph85.preheader ], [ %indvars.iv.next93, %.thread77 ]
  %40 = getelementptr inbounds nuw %struct.QualItem, ptr %10, i64 %indvars.iv92
  %.sroa.0.0.copyload = load ptr, ptr %40, align 8
  %.sroa.4.0..sroa_idx = getelementptr inbounds nuw i8, ptr %40, i64 8
  %.sroa.4.0.copyload = load double, ptr %.sroa.4.0..sroa_idx, align 8
  %.sroa.5.0..sroa_idx = getelementptr inbounds nuw i8, ptr %40, i64 16
  %.sroa.5.0.copyload = load i32, ptr %.sroa.5.0..sroa_idx, align 8
  %.sroa.7.0..sroa_idx = getelementptr inbounds nuw i8, ptr %40, i64 20
  %.sroa.7.0.copyload = load i32, ptr %.sroa.7.0..sroa_idx, align 4
  %41 = trunc nuw nsw i64 %indvars.iv92 to i32
  br label %42

42:                                               ; preds = %.lr.ph85, %55
  %.06583 = phi i32 [ %41, %.lr.ph85 ], [ %56, %55 ]
  %43 = zext nneg i32 %.06583 to i64
  %44 = getelementptr %struct.QualItem, ptr %10, i64 %43
  %45 = getelementptr i8, ptr %44, i64 -24
  %46 = getelementptr i8, ptr %44, i64 -8
  %47 = load i32, ptr %46, align 8
  %48 = icmp ugt i32 %.sroa.5.0.copyload, %47
  br i1 %48, label %.thread77, label %49

49:                                               ; preds = %42
  %50 = icmp eq i32 %.sroa.5.0.copyload, %47
  br i1 %50, label %51, label %55

51:                                               ; preds = %49
  %52 = getelementptr i8, ptr %44, i64 -16
  %53 = load double, ptr %52, align 8
  %54 = fcmp ult double %.sroa.4.0.copyload, %53
  br i1 %54, label %55, label %.thread77

55:                                               ; preds = %51, %49
  call void @llvm.memcpy.p0.p0.i64(ptr noundef nonnull align 8 dereferenceable(24) %44, ptr noundef nonnull align 8 dereferenceable(24) %45, i64 24, i1 false)
  %56 = add nsw i32 %.06583, -1
  %57 = icmp sgt i32 %.06583, 1
  br i1 %57, label %42, label %.thread77, !llvm.loop !18

.thread77:                                        ; preds = %42, %51, %55
  %.065.lcssa = phi i32 [ %.06583, %42 ], [ %.06583, %51 ], [ 0, %55 ]
  %58 = sext i32 %.065.lcssa to i64
  %59 = getelementptr inbounds %struct.QualItem, ptr %10, i64 %58
  store ptr %.sroa.0.0.copyload, ptr %59, align 8
  %.sroa.4.0..sroa_idx9 = getelementptr inbounds nuw i8, ptr %59, i64 8
  store double %.sroa.4.0.copyload, ptr %.sroa.4.0..sroa_idx9, align 8
  %.sroa.5.0..sroa_idx11 = getelementptr inbounds nuw i8, ptr %59, i64 16
  store i32 %.sroa.5.0.copyload, ptr %.sroa.5.0..sroa_idx11, align 8
  %.sroa.7.0..sroa_idx14 = getelementptr inbounds nuw i8, ptr %59, i64 20
  store i32 %.sroa.7.0.copyload, ptr %.sroa.7.0..sroa_idx14, align 4
  %indvars.iv.next93 = add nuw nsw i64 %indvars.iv92, 1
  %exitcond.not = icmp eq i64 %indvars.iv.next93, %wide.trip.count
  br i1 %exitcond.not, label %.lr.ph88.preheader, label %.lr.ph85, !llvm.loop !19

.lr.ph88:                                         ; preds = %.lr.ph88.preheader, %.lr.ph88
  %indvars.iv95 = phi i64 [ 0, %.lr.ph88.preheader ], [ %indvars.iv.next96, %.lr.ph88 ]
  %.06886 = phi ptr [ null, %.lr.ph88.preheader ], [ %62, %.lr.ph88 ]
  %60 = getelementptr inbounds nuw %struct.QualItem, ptr %10, i64 %indvars.iv95
  %61 = load ptr, ptr %60, align 8
  %62 = call ptr @lappend(ptr noundef %.06886, ptr noundef %61) #12
  %indvars.iv.next96 = add nuw nsw i64 %indvars.iv95, 1
  %exitcond100.not = icmp eq i64 %indvars.iv.next96, %wide.trip.count99
  br i1 %exitcond100.not, label %list_length.exit.thread, label %.lr.ph88, !llvm.loop !20

list_length.exit.thread:                          ; preds = %.lr.ph88, %2, %list_length.exit
  %.0 = phi ptr [ %1, %list_length.exit ], [ null, %2 ], [ %62, %.lr.ph88 ]
  ret ptr %.0
}